; Function Attrs: mustprogress uwtable
define void @_ZNK6casadi8Function8mapaccumExRKSt3mapINSt7__cxx1112basic_stringIcSt11char_traitsIcESaIcEEENS_11GenericTypeESt4lessIS7_ESaISt4pairIKS7_S8_EEE(ptr dead_on_unwind noalias writable sret(%"class.casadi::Function") align 8 %0, ptr noundef nonnull align 8 dereferenceable(8) %1, i64 noundef %2, ptr noundef nonnull readonly align 8 captures(none) dereferenceable(48) %3) local_unnamed_addr #4 align 2 personality ptr @__gxx_personality_v0 {
  %5 = alloca %"class.std::__cxx11::basic_string", align 8
  call void @llvm.lifetime.start.p0(i64 32, ptr nonnull %5) #30
  %6 = tail call noundef nonnull align 8 dereferenceable(32) ptr @_ZNK6casadi8Function4nameB5cxx11Ev(ptr noundef nonnull align 8 dereferenceable(8) %1)
  call void @_ZStplIcSt11char_traitsIcESaIcEENSt7__cxx1112basic_stringIT_T0_T1_EEPKS5_RKS8_(ptr dead_on_unwind nonnull writable sret(%"class.std::__cxx11::basic_string") align 8 %5, ptr noundef nonnull @.str.64, ptr noundef nonnull align 8 dereferenceable(32) %6)
  invoke void @_ZNK6casadi8Function8mapaccumERKNSt7__cxx1112basic_stringIcSt11char_traitsIcESaIcEEExxRKSt3mapIS6_NS_11GenericTypeESt4lessIS6_ESaISt4pairIS7_SA_EEE(ptr dead_on_unwind writable sret(%"class.casadi::Function") align 8 %0, ptr noundef nonnull align 8 dereferenceable(8) %1, ptr noundef nonnull align 8 dereferenceable(32) %5, i64 noundef %2, i64 noundef 1, ptr noundef nonnull readonly align 8 dereferenceable(48) %3)
          to label %_ZNK6casadi8Function8mapaccumERKNSt7__cxx1112basic_stringIcSt11char_traitsIcESaIcEEExRKSt3mapIS6_NS_11GenericTypeESt4lessIS6_ESaISt4pairIS7_SA_EEE.exit unwind label %15

_ZNK6casadi8Function8mapaccumERKNSt7__cxx1112basic_stringIcSt11char_traitsIcESaIcEEExRKSt3mapIS6_NS_11GenericTypeESt4lessIS6_ESaISt4pairIS7_SA_EEE.exit: ; preds = %4
  %7 = load ptr, ptr %5, align 8, !tbaa !11
  %8 = getelementptr inbounds nuw i8, ptr %5, i64 16
  %9 = icmp eq ptr %7, %8
  br i1 %9, label %_ZNKSt7__cxx1112basic_stringIcSt11char_traitsIcESaIcEE11_M_is_localEv.exit.thread.i.i, label %_ZNKSt7__cxx1112basic_stringIcSt11char_traitsIcESaIcEE11_M_is_localEv.exit.i.i

_ZNKSt7__cxx1112basic_stringIcSt11char_traitsIcESaIcEE11_M_is_localEv.exit.thread.i.i: ; preds = %_ZNK6casadi8Function8mapaccumERKNSt7__cxx1112basic_stringIcSt11char_traitsIcESaIcEEExRKSt3mapIS6_NS_11GenericTypeESt4lessIS6_ESaISt4pairIS7_SA_EEE.exit
  %10 = getelementptr inbounds nuw i8, ptr %5, i64 8
  %11 = load i64, ptr %10, align 8, !tbaa !14
  %12 = icmp ult i64 %11, 16
  call void @llvm.assume(i1 %12)
  br label %_ZNSt7__cxx1112basic_stringIcSt11char_traitsIcESaIcEED2Ev.exit

_ZNKSt7__cxx1112basic_stringIcSt11char_traitsIcESaIcEE11_M_is_localEv.exit.i.i: ; preds = %_ZNK6casadi8Function8mapaccumERKNSt7__cxx1112basic_stringIcSt11char_traitsIcESaIcEEExRKSt3mapIS6_NS_11GenericTypeESt4lessIS6_ESaISt4pairIS7_SA_EEE.exit
  %13 = load i64, ptr %8, align 8, !tbaa !13
  %14 = add i64 %13, 1
  call void @_ZdlPvm(ptr noundef %7, i64 noundef %14) #31
  br label %_ZNSt7__cxx1112basic_stringIcSt11char_traitsIcESaIcEED2Ev.exit

_ZNSt7__cxx1112basic_stringIcSt11char_traitsIcESaIcEED2Ev.exit: ; preds = %_ZNKSt7__cxx1112basic_stringIcSt11char_traitsIcESaIcEE11_M_is_localEv.exit.thread.i.i, %_ZNKSt7__cxx1112basic_stringIcSt11char_traitsIcESaIcEE11_M_is_localEv.exit.i.i
  call void @llvm.lifetime.end.p0(i64 32, ptr nonnull %5) #30
  ret void

15:                                               ; preds = %4
  %16 = landingpad { ptr, i32 }
          cleanup
  %17 = load ptr, ptr %5, align 8, !tbaa !11
  %18 = getelementptr inbounds nuw i8, ptr %5, i64 16
  %19 = icmp eq ptr %17, %18
  br i1 %19, label %_ZNKSt7__cxx1112basic_stringIcSt11char_traitsIcESaIcEE11_M_is_localEv.exit.thread.i.i5, label %_ZNKSt7__cxx1112basic_stringIcSt11char_traitsIcESaIcEE11_M_is_localEv.exit.i.i4

_ZNKSt7__cxx1112basic_stringIcSt11char_traitsIcESaIcEE11_M_is_localEv.exit.thread.i.i5: ; preds = %15
  %20 = getelementptr inbounds nuw i8, ptr %5, i64 8
  %21 = load i64, ptr %20, align 8, !tbaa !14
  %22 = icmp ult i64 %21, 16
  call void @llvm.assume(i1 %22)
  br label %_ZNSt7__cxx1112basic_stringIcSt11char_traitsIcESaIcEED2Ev.exit6

_ZNKSt7__cxx1112basic_stringIcSt11char_traitsIcESaIcEE11_M_is_localEv.exit.i.i4: ; preds = %15
  %23 = load i64, ptr %18, align 8, !tbaa !13
  %24 = add i64 %23, 1
  call void @_ZdlPvm(ptr noundef %17, i64 noundef %24) #31
  br label %_ZNSt7__cxx1112basic_stringIcSt11char_traitsIcESaIcEED2Ev.exit6

_ZNSt7__cxx1112basic_stringIcSt11char_traitsIcESaIcEED2Ev.exit6: ; preds = %_ZNKSt7__cxx1112basic_stringIcSt11char_traitsIcESaIcEE11_M_is_localEv.exit.thread.i.i5, %_ZNKSt7__cxx1112basic_stringIcSt11char_traitsIcESaIcEE11_M_is_localEv.exit.i.i4
  call void @llvm.lifetime.end.p0(i64 32, ptr nonnull %5) #30
  resume { ptr, i32 } %16
}